target datalayout = "e-m:e-p270:32:32-p271:32:32-p272:64:64-i64:64-i128:128-f80:128-n8:16:32:64-S128"
target triple = "x86_64-pc-linux-gnu"

%"class.zxing::Ref" = type { ptr }
%"class.zxing::Ref.2" = type { ptr }
%"class.zxing::Counted.base" = type <{ ptr, i32 }>
%"class.zxing::Binarizer" = type { %"class.zxing::Counted.base", %"class.zxing::Ref", i8, i8, i32, i32, i32, i32, %"class.zxing::Ref.0", %"class.zxing::Ref.0", %"class.zxing::Ref.0" }
%"class.zxing::Ref.0" = type { ptr }
%"class.zxing::ArrayRef.1" = type { %"class.zxing::Counted.base", ptr }
%"class.zxing::BitMatrix" = type <{ %"class.zxing::Counted.base", i32, i32, i32, %"class.std::vector.9", %"class.std::vector.9", %"class.std::vector.14", %"class.std::vector.9", %"class.std::vector.9", %"class.std::vector.9", %"class.std::vector.9", %"class.std::vector.14", %"class.std::vector.9", %"class.std::vector.9", %"class.zxing::ArrayRef.18", %"class.zxing::ArrayRef.1", i8, i8, [6 x i8] }>
%"class.std::vector.14" = type { %"struct.std::_Bvector_base" }
%"struct.std::_Bvector_base" = type { %"struct.std::_Bvector_base<std::allocator<bool>>::_Bvector_impl" }
%"struct.std::_Bvector_base<std::allocator<bool>>::_Bvector_impl" = type { %"struct.std::_Bvector_base<std::allocator<bool>>::_Bvector_impl_data" }
%"struct.std::_Bvector_base<std::allocator<bool>>::_Bvector_impl_data" = type { %"struct.std::_Bit_iterator", %"struct.std::_Bit_iterator", ptr }
%"struct.std::_Bit_iterator" = type { %"struct.std::_Bit_iterator_base.base", [4 x i8] }
%"struct.std::_Bit_iterator_base.base" = type <{ ptr, i32 }>
%"class.std::vector.9" = type { %"struct.std::_Vector_base.10" }
%"struct.std::_Vector_base.10" = type { %"struct.std::_Vector_base<short, std::allocator<short>>::_Vector_impl" }
%"struct.std::_Vector_base<short, std::allocator<short>>::_Vector_impl" = type { %"struct.std::_Vector_base<short, std::allocator<short>>::_Vector_impl_data" }
%"struct.std::_Vector_base<short, std::allocator<short>>::_Vector_impl_data" = type { ptr, ptr, ptr }
%"class.zxing::ArrayRef.18" = type { %"class.zxing::Counted.base", ptr }

; Function Attrs: mustprogress nounwind uwtable
define linkonce_odr hidden noundef ptr @_ZNK5zxing3RefINS_10ByteMatrixEEptEv(ptr noundef nonnull align 8 dereferenceable(8) %0) #2 comdat align 2 {
  %2 = alloca ptr, align 8
  store ptr %0, ptr %2, align 8, !tbaa !36
  %3 = load ptr, ptr %2, align 8
  %4 = getelementptr inbounds nuw %"class.zxing::Ref.2", ptr %3, i32 0, i32 0
  %5 = load ptr, ptr %4, align 8, !tbaa !39
  ret ptr %5
}

; Function Attrs: mustprogress nounwind uwtable
define linkonce_odr hidden noundef i32 @_ZN5zxing9BitMatrix14getRowBitsSizeEv(ptr noundef nonnull align 8 dereferenceable(346) %0) #2 comdat align 2 {
  %2 = alloca ptr, align 8
  store ptr %0, ptr %2, align 8, !tbaa !83
  %3 = load ptr, ptr %2, align 8
  %4 = getelementptr inbounds nuw %"class.zxing::BitMatrix", ptr %3, i32 0, i32 3
  %5 = load i32, ptr %4, align 4, !tbaa !99
  ret i32 %5
}

; Function Attrs: mustprogress nounwind uwtable
define linkonce_odr hidden noundef ptr @_ZNK5zxing3RefINS_9BitMatrixEEptEv(ptr noundef nonnull align 8 dereferenceable(8) %0) #2 comdat align 2 {
  %2 = alloca ptr, align 8
  store ptr %0, ptr %2, align 8, !tbaa !80
  %3 = load ptr, ptr %2, align 8
  %4 = getelementptr inbounds nuw %"class.zxing::Ref.0", ptr %3, i32 0, i32 0
  %5 = load ptr, ptr %4, align 8, !tbaa !82
  ret ptr %5
}

; Function Attrs: mustprogress uwtable
define hidden void @_ZN5zxing15HybridBinarizer14thresholdBlockERNS_3RefINS_10ByteMatrixEEEiiiRKNS1_INS_9BitMatrixEEERNS_12ErrorHandlerE(ptr noundef nonnull align 8 dereferenceable(228) %0, ptr noundef nonnull align 8 dereferenceable(8) %1, i32 noundef %2, i32 noundef %3, i32 noundef %4, ptr noundef nonnull align 8 dereferenceable(8) %5, ptr noundef nonnull align 8 dereferenceable(48) %6) #0 align 2 {
  %8 = alloca ptr, align 8
  %9 = alloca ptr, align 8
  %10 = alloca i32, align 4
  %11 = alloca i32, align 4
  %12 = alloca i32, align 4
  %13 = alloca ptr, align 8
  %14 = alloca ptr, align 8
  %15 = alloca i32, align 4
  %16 = alloca i32, align 4
  %17 = alloca i32, align 4
  %18 = alloca i32, align 4
  %19 = alloca ptr, align 8
  %20 = alloca i32, align 4
  %21 = alloca ptr, align 8
  %22 = alloca i32, align 4
  %23 = alloca i32, align 4
  store ptr %0, ptr %8, align 8, !tbaa !3
  store ptr %1, ptr %9, align 8, !tbaa !36
  store i32 %2, ptr %10, align 4, !tbaa !21
  store i32 %3, ptr %11, align 4, !tbaa !21
  store i32 %4, ptr %12, align 4, !tbaa !21
  store ptr %5, ptr %13, align 8, !tbaa !80
  store ptr %6, ptr %14, align 8, !tbaa !78
  %24 = load ptr, ptr %8, align 8
  call void @llvm.lifetime.start.p0(i64 4, ptr %15) #12
  %25 = load ptr, ptr %13, align 8, !tbaa !80
  %26 = call noundef ptr @_ZNK5zxing3RefINS_9BitMatrixEEptEv(ptr noundef nonnull align 8 dereferenceable(8) %25)
  %27 = call noundef i32 @_ZN5zxing9BitMatrix14getRowBitsSizeEv(ptr noundef nonnull align 8 dereferenceable(346) %26)
  store i32 %27, ptr %15, align 4, !tbaa !21
  call void @llvm.lifetime.start.p0(i64 4, ptr %16) #12
  %28 = getelementptr inbounds nuw %"class.zxing::Binarizer", ptr %24, i32 0, i32 6
  %29 = load i32, ptr %28, align 4, !tbaa !12
  store i32 %29, ptr %16, align 4, !tbaa !21
  call void @llvm.lifetime.start.p0(i64 4, ptr %17) #12
  %30 = load i32, ptr %15, align 4, !tbaa !21
  %31 = sub nsw i32 %30, 8
  store i32 %31, ptr %17, align 4, !tbaa !21
  call void @llvm.lifetime.start.p0(i64 4, ptr %18) #12
  %32 = load i32, ptr %16, align 4, !tbaa !21
  %33 = sub nsw i32 %32, 8
  store i32 %33, ptr %18, align 4, !tbaa !21
  call void @llvm.lifetime.start.p0(i64 8, ptr %19) #12
  %34 = load ptr, ptr %9, align 8, !tbaa !36
  %35 = call noundef ptr @_ZNK5zxing3RefINS_10ByteMatrixEEptEv(ptr noundef nonnull align 8 dereferenceable(8) %34)
  %36 = load i32, ptr %11, align 4, !tbaa !21
  %37 = load ptr, ptr %14, align 8, !tbaa !78
  %38 = call noundef ptr @_ZN5zxing10ByteMatrix10getByteRowEiRNS_12ErrorHandlerE(ptr noundef nonnull align 8 dereferenceable(40) %35, i32 noundef %36, ptr noundef nonnull align 8 dereferenceable(48) %37)
  store ptr %38, ptr %19, align 8, !tbaa !50
  %39 = load ptr, ptr %14, align 8, !tbaa !78
  %40 = load ptr, ptr %39, align 8, !tbaa !10
  %41 = getelementptr inbounds ptr, ptr %40, i64 2
  %42 = load ptr, ptr %41, align 8
  %43 = call noundef i32 %42(ptr noundef nonnull align 8 dereferenceable(48) %39)
  %44 = icmp ne i32 %43, 0
  br i1 %44, label %45, label %46

45:                                               ; preds = %7
  store i32 1, ptr %20, align 4
  br label %95

46:                                               ; preds = %7
  call void @llvm.lifetime.start.p0(i64 8, ptr %21) #12
  %47 = load ptr, ptr %13, align 8, !tbaa !80
  %48 = call noundef ptr @_ZNK5zxing3RefINS_9BitMatrixEEptEv(ptr noundef nonnull align 8 dereferenceable(8) %47)
  %49 = load i32, ptr %11, align 4, !tbaa !21
  %50 = call noundef ptr @_ZN5zxing9BitMatrix13getRowBoolPtrEi(ptr noundef nonnull align 8 dereferenceable(346) %48, i32 noundef %49)
  store ptr %50, ptr %21, align 8, !tbaa !94
  %51 = load i32, ptr %10, align 4, !tbaa !21
  %52 = load ptr, ptr %19, align 8, !tbaa !50
  %53 = sext i32 %51 to i64
  %54 = getelementptr inbounds i8, ptr %52, i64 %53
  store ptr %54, ptr %19, align 8, !tbaa !50
  %55 = load i32, ptr %10, align 4, !tbaa !21
  %56 = load ptr, ptr %21, align 8, !tbaa !94
  %57 = sext i32 %55 to i64
  %58 = getelementptr inbounds i8, ptr %56, i64 %57
  store ptr %58, ptr %21, align 8, !tbaa !94
  call void @llvm.lifetime.start.p0(i64 4, ptr %22) #12
  store i32 0, ptr %22, align 4, !tbaa !21
  br label %59

59:                                               ; preds = %91, %46
  %60 = load i32, ptr %22, align 4, !tbaa !21
  %61 = icmp slt i32 %60, 8
  br i1 %61, label %63, label %62

62:                                               ; preds = %59
  store i32 2, ptr %20, align 4
  call void @llvm.lifetime.end.p0(i64 4, ptr %22) #12
  br label %94

63:                                               ; preds = %59
  call void @llvm.lifetime.start.p0(i64 4, ptr %23) #12
  store i32 0, ptr %23, align 4, !tbaa !21
  br label %64

64:                                               ; preds = %79, %63
  %65 = load i32, ptr %23, align 4, !tbaa !21
  %66 = icmp slt i32 %65, 8
  br i1 %66, label %68, label %67

67:                                               ; preds = %64
  store i32 5, ptr %20, align 4
  call void @llvm.lifetime.end.p0(i64 4, ptr %23) #12
  br label %82

68:                                               ; preds = %64
  %69 = load ptr, ptr %19, align 8, !tbaa !50
  %70 = getelementptr inbounds nuw i8, ptr %69, i32 1
  store ptr %70, ptr %19, align 8, !tbaa !50
  %71 = load i8, ptr %69, align 1, !tbaa !51
  %72 = zext i8 %71 to i32
  %73 = load i32, ptr %12, align 4, !tbaa !21
  %74 = icmp sle i32 %72, %73
  %75 = select i1 %74, i1 true, i1 false
  %76 = load ptr, ptr %21, align 8, !tbaa !94
  %77 = getelementptr inbounds nuw i8, ptr %76, i32 1
  store ptr %77, ptr %21, align 8, !tbaa !94
  %78 = zext i1 %75 to i8
  store i8 %78, ptr %76, align 1, !tbaa !96
  br label %79

79:                                               ; preds = %68
  %80 = load i32, ptr %23, align 4, !tbaa !21
  %81 = add nsw i32 %80, 1
  store i32 %81, ptr %23, align 4, !tbaa !21
  br label %64, !llvm.loop !97

82:                                               ; preds = %67
  %83 = load i32, ptr %17, align 4, !tbaa !21
  %84 = load ptr, ptr %19, align 8, !tbaa !50
  %85 = sext i32 %83 to i64
  %86 = getelementptr inbounds i8, ptr %84, i64 %85
  store ptr %86, ptr %19, align 8, !tbaa !50
  %87 = load i32, ptr %18, align 4, !tbaa !21
  %88 = load ptr, ptr %21, align 8, !tbaa !94
  %89 = sext i32 %87 to i64
  %90 = getelementptr inbounds i8, ptr %88, i64 %89
  store ptr %90, ptr %21, align 8, !tbaa !94
  br label %91

91:                                               ; preds = %82
  %92 = load i32, ptr %22, align 4, !tbaa !21
  %93 = add nsw i32 %92, 1
  store i32 %93, ptr %22, align 4, !tbaa !21
  br label %59, !llvm.loop !98

94:                                               ; preds = %62
  call void @llvm.lifetime.end.p0(i64 8, ptr %21) #12
  store i32 0, ptr %20, align 4
  br label %95

95:                                               ; preds = %94, %45
  call void @llvm.lifetime.end.p0(i64 8, ptr %19) #12
  call void @llvm.lifetime.end.p0(i64 4, ptr %18) #12
  call void @llvm.lifetime.end.p0(i64 4, ptr %17) #12
  call void @llvm.lifetime.end.p0(i64 4, ptr %16) #12
  call void @llvm.lifetime.end.p0(i64 4, ptr %15) #12
  %96 = load i32, ptr %20, align 4
  switch i32 %96, label %98 [
    i32 0, label %97
    i32 1, label %97
  ]

97:                                               ; preds = %95, %95
  ret void

98:                                               ; preds = %95
  unreachable
}