; Function Attrs: mustprogress uwtable
define hidden void @_ZN5zxing15HybridBinarizer14thresholdBlockERNS_3RefINS_10ByteMatrixEEEiiiRKNS1_INS_9BitMatrixEEERNS_12ErrorHandlerE(ptr noundef nonnull readonly align 8 captures(none) dereferenceable(228) %0, ptr noundef nonnull readonly align 8 captures(none) dereferenceable(8) %1, i32 noundef %2, i32 noundef %3, i32 noundef %4, ptr noundef nonnull readonly align 8 captures(none) dereferenceable(8) %5, ptr noundef nonnull align 8 dereferenceable(48) %6) local_unnamed_addr #0 align 2 {
  %8 = load ptr, ptr %5, align 8, !tbaa !70
  %9 = getelementptr inbounds nuw i8, ptr %8, i64 20
  %10 = load i32, ptr %9, align 4, !tbaa !77
  %11 = getelementptr inbounds nuw i8, ptr %0, i64 36
  %12 = load i32, ptr %11, align 4, !tbaa !23
  %13 = load ptr, ptr %1, align 8, !tbaa !14
  %14 = tail call noundef ptr @_ZN5zxing10ByteMatrix10getByteRowEiRNS_12ErrorHandlerE(ptr noundef nonnull align 8 dereferenceable(40) %13, i32 noundef %3, ptr noundef nonnull align 8 dereferenceable(48) %6)
  %15 = load ptr, ptr %6, align 8, !tbaa !12
  %16 = getelementptr inbounds nuw i8, ptr %15, i64 16
  %17 = load ptr, ptr %16, align 8
  %18 = tail call noundef i32 %17(ptr noundef nonnull align 8 dereferenceable(48) %6)
  %.not = icmp eq i32 %18, 0
  br i1 %.not, label %19, label %.loopexit

19:                                               ; preds = %7
  %20 = load ptr, ptr %5, align 8, !tbaa !70
  %21 = tail call noundef ptr @_ZN5zxing9BitMatrix13getRowBoolPtrEi(ptr noundef nonnull align 8 dereferenceable(346) %20, i32 noundef %3)
  %22 = sext i32 %2 to i64
  %23 = getelementptr inbounds i8, ptr %14, i64 %22
  %24 = getelementptr inbounds i8, ptr %21, i64 %22
  %25 = sext i32 %10 to i64
  %26 = sext i32 %12 to i64
  br label %.preheader

.preheader:                                       ; preds = %19, %27
  %.02433 = phi i32 [ 0, %19 ], [ %32, %27 ]
  %.02532 = phi ptr [ %24, %19 ], [ %31, %27 ]
  %.02631 = phi ptr [ %23, %19 ], [ %29, %27 ]
  br label %33

27:                                               ; preds = %33
  %28 = getelementptr i8, ptr %34, i64 %25
  %29 = getelementptr i8, ptr %28, i64 -8
  %30 = getelementptr i8, ptr %38, i64 %26
  %31 = getelementptr i8, ptr %30, i64 -8
  %32 = add nuw nsw i32 %.02433, 1
  %exitcond35.not = icmp eq i32 %32, 8
  br i1 %exitcond35.not, label %.loopexit, label %.preheader, !llvm.loop !95

33:                                               ; preds = %.preheader, %33
  %.030 = phi i32 [ 0, %.preheader ], [ %40, %33 ]
  %.129 = phi ptr [ %.02532, %.preheader ], [ %38, %33 ]
  %.12728 = phi ptr [ %.02631, %.preheader ], [ %34, %33 ]
  %34 = getelementptr inbounds nuw i8, ptr %.12728, i64 1
  %35 = load i8, ptr %.12728, align 1, !tbaa !50
  %36 = zext i8 %35 to i32
  %37 = icmp sge i32 %4, %36
  %38 = getelementptr inbounds nuw i8, ptr %.129, i64 1
  %39 = zext i1 %37 to i8
  store i8 %39, ptr %.129, align 1, !tbaa !93
  %40 = add nuw nsw i32 %.030, 1
  %exitcond.not = icmp eq i32 %40, 8
  br i1 %exitcond.not, label %27, label %33, !llvm.loop !94

.loopexit:                                        ; preds = %27, %7
  ret void
}